target datalayout = "e-m:e-p270:32:32-p271:32:32-p272:64:64-i64:64-i128:128-f80:128-n8:16:32:64-S128"
target triple = "x86_64-pc-linux-gnu"

%struct._zend_fcall_info = type { i64, %struct._zval_struct, ptr, ptr, ptr, i32, ptr }
%struct._zval_struct = type { %union._zend_value, %union.anon, %union.anon.2 }
%union._zend_value = type { i64 }
%union.anon = type { i32 }
%union.anon.2 = type { i32 }
%struct._zend_fcall_info_cache = type { ptr, ptr, ptr, ptr, ptr }
%struct._zend_refcounted_h = type { i32, %union.anon.3 }
%union.anon.3 = type { i32 }
%struct._zend_string = type { %struct._zend_refcounted_h, i64, i64, [1 x i8] }

; Function Attrs: nounwind uwtable
define i32 @zend_call_method_if_exists(ptr noundef %0, ptr noundef %1, ptr noundef %2, i32 noundef %3, ptr noundef %4) #0 {
  %6 = alloca i32, align 4
  %7 = alloca i32, align 4
  %8 = alloca ptr, align 8
  %9 = alloca ptr, align 8
  %10 = alloca ptr, align 8
  %11 = alloca i32, align 4
  %12 = alloca ptr, align 8
  %13 = alloca %struct._zend_fcall_info, align 8
  %14 = alloca ptr, align 8
  %15 = alloca ptr, align 8
  %16 = alloca %struct._zend_fcall_info_cache, align 8
  store ptr %0, ptr %8, align 8
  store ptr %1, ptr %9, align 8
  store ptr %2, ptr %10, align 8
  store i32 %3, ptr %11, align 4
  store ptr %4, ptr %12, align 8
  %17 = getelementptr inbounds %struct._zend_fcall_info, ptr %13, i32 0, i32 0
  store i64 64, ptr %17, align 8
  %18 = load ptr, ptr %8, align 8
  %19 = getelementptr inbounds %struct._zend_fcall_info, ptr %13, i32 0, i32 4
  store ptr %18, ptr %19, align 8
  br label %20

20:                                               ; preds = %5
  %21 = getelementptr inbounds %struct._zend_fcall_info, ptr %13, i32 0, i32 1
  store ptr %21, ptr %14, align 8
  %22 = load ptr, ptr %9, align 8
  store ptr %22, ptr %15, align 8
  %23 = load ptr, ptr %15, align 8
  %24 = load ptr, ptr %14, align 8
  %25 = getelementptr inbounds %struct._zval_struct, ptr %24, i32 0, i32 0
  store ptr %23, ptr %25, align 8
  %26 = load ptr, ptr %15, align 8
  %27 = getelementptr inbounds %struct._zend_string, ptr %26, i32 0, i32 0
  %28 = getelementptr inbounds %struct._zend_refcounted_h, ptr %27, i32 0, i32 1
  %29 = load i32, ptr %28, align 4
  store i32 %29, ptr %6, align 4
  %30 = load i32, ptr %6, align 4
  %31 = and i32 %30, 1008
  %32 = and i32 %31, 64
  %33 = icmp ne i32 %32, 0
  %34 = select i1 %33, i32 6, i32 262
  %35 = load ptr, ptr %14, align 8
  %36 = getelementptr inbounds %struct._zval_struct, ptr %35, i32 0, i32 1
  store i32 %34, ptr %36, align 8
  br label %37

37:                                               ; preds = %20
  %38 = load ptr, ptr %10, align 8
  %39 = getelementptr inbounds %struct._zend_fcall_info, ptr %13, i32 0, i32 2
  store ptr %38, ptr %39, align 8
  %40 = load i32, ptr %11, align 4
  %41 = getelementptr inbounds %struct._zend_fcall_info, ptr %13, i32 0, i32 5
  store i32 %40, ptr %41, align 8
  %42 = load ptr, ptr %12, align 8
  %43 = getelementptr inbounds %struct._zend_fcall_info, ptr %13, i32 0, i32 3
  store ptr %42, ptr %43, align 8
  %44 = getelementptr inbounds %struct._zend_fcall_info, ptr %13, i32 0, i32 6
  store ptr null, ptr %44, align 8
  %45 = getelementptr inbounds %struct._zend_fcall_info, ptr %13, i32 0, i32 1
  %46 = getelementptr inbounds %struct._zend_fcall_info, ptr %13, i32 0, i32 4
  %47 = load ptr, ptr %46, align 8
  %48 = call zeroext i1 @zend_is_callable_ex(ptr noundef %45, ptr noundef %47, i32 noundef 2, ptr noundef null, ptr noundef %16, ptr noundef null)
  br i1 %48, label %54, label %49

49:                                               ; preds = %37
  br label %50

50:                                               ; preds = %49
  %51 = load ptr, ptr %10, align 8
  %52 = getelementptr inbounds %struct._zval_struct, ptr %51, i32 0, i32 1
  store i32 0, ptr %52, align 8
  br label %53

53:                                               ; preds = %50
  store i32 -1, ptr %7, align 4
  br label %56

54:                                               ; preds = %37
  %55 = call i32 @zend_call_function(ptr noundef %13, ptr noundef %16)
  store i32 %55, ptr %7, align 4
  br label %56

56:                                               ; preds = %54, %53
  %57 = load i32, ptr %7, align 4
  ret i32 %57
}