; Function Attrs: nounwind uwtable
define noundef i32 @zend_call_method_if_exists(ptr noundef %0, ptr noundef %1, ptr noundef %2, i32 noundef %3, ptr noundef %4) local_unnamed_addr #0 {
  %6 = alloca %struct._zend_fcall_info, align 8
  %7 = alloca %struct._zend_fcall_info_cache, align 8
  store i64 64, ptr %6, align 8
  %8 = getelementptr inbounds i8, ptr %6, i64 40
  store ptr %0, ptr %8, align 8
  %9 = getelementptr inbounds i8, ptr %6, i64 8
  store ptr %1, ptr %9, align 8
  %10 = getelementptr inbounds i8, ptr %1, i64 4
  %11 = load i32, ptr %10, align 4
  %12 = and i32 %11, 64
  %.not = icmp eq i32 %12, 0
  %13 = select i1 %.not, i32 262, i32 6
  %14 = getelementptr inbounds i8, ptr %6, i64 16
  store i32 %13, ptr %14, align 8
  %15 = getelementptr inbounds i8, ptr %6, i64 24
  store ptr %2, ptr %15, align 8
  %16 = getelementptr inbounds i8, ptr %6, i64 48
  store i32 %3, ptr %16, align 8
  %17 = getelementptr inbounds i8, ptr %6, i64 32
  store ptr %4, ptr %17, align 8
  %18 = getelementptr inbounds i8, ptr %6, i64 56
  store ptr null, ptr %18, align 8
  %19 = call zeroext i1 @zend_is_callable_ex(ptr noundef nonnull %9, ptr noundef %0, i32 noundef 2, ptr noundef null, ptr noundef nonnull %7, ptr noundef null) #24
  br i1 %19, label %22, label %20

20:                                               ; preds = %5
  %21 = getelementptr inbounds i8, ptr %2, i64 8
  store i32 0, ptr %21, align 8
  br label %24

22:                                               ; preds = %5
  %23 = call i32 @zend_call_function(ptr noundef nonnull %6, ptr noundef nonnull %7), !range !4
  br label %24

24:                                               ; preds = %22, %20
  %.0 = phi i32 [ %23, %22 ], [ -1, %20 ]
  ret i32 %.0
}